ARM GAS  C:\Users\tugru\AppData\Local\Temp\ccfrz6hu.s 			page 1


   1              		.cpu cortex-m4
   2              		.arch armv7e-m
   3              		.fpu fpv4-sp-d16
   4              		.eabi_attribute 27, 1
   5              		.eabi_attribute 28, 1
   6              		.eabi_attribute 20, 1
   7              		.eabi_attribute 21, 1
   8              		.eabi_attribute 23, 3
   9              		.eabi_attribute 24, 1
  10              		.eabi_attribute 25, 1
  11              		.eabi_attribute 26, 1
  12              		.eabi_attribute 30, 1
  13              		.eabi_attribute 34, 1
  14              		.eabi_attribute 18, 4
  15              		.file	"stm32f4xx_hal_msp.c"
  16              		.text
  17              	.Ltext0:
  18              		.cfi_sections	.debug_frame
  19              		.section	.text.HAL_MspInit,"ax",%progbits
  20              		.align	1
  21              		.global	HAL_MspInit
  22              		.syntax unified
  23              		.thumb
  24              		.thumb_func
  26              	HAL_MspInit:
  27              	.LFB220:
  28              		.file 1 "Core/Src/stm32f4xx_hal_msp.c"
   1:Core/Src/stm32f4xx_hal_msp.c **** 
   2:Core/Src/stm32f4xx_hal_msp.c **** /* USER CODE BEGIN Header */
   3:Core/Src/stm32f4xx_hal_msp.c **** /**
   4:Core/Src/stm32f4xx_hal_msp.c ****   ******************************************************************************
   5:Core/Src/stm32f4xx_hal_msp.c ****   * @file         stm32f4xx_hal_msp.c
   6:Core/Src/stm32f4xx_hal_msp.c ****   * @brief        This file provides code for the MSP Initialization
   7:Core/Src/stm32f4xx_hal_msp.c ****   *               and de-Initialization codes.
   8:Core/Src/stm32f4xx_hal_msp.c ****   ******************************************************************************
   9:Core/Src/stm32f4xx_hal_msp.c ****   * @attention
  10:Core/Src/stm32f4xx_hal_msp.c ****   *
  11:Core/Src/stm32f4xx_hal_msp.c ****   * Copyright (c) 2025 STMicroelectronics.
  12:Core/Src/stm32f4xx_hal_msp.c ****   * All rights reserved.
  13:Core/Src/stm32f4xx_hal_msp.c ****   *
  14:Core/Src/stm32f4xx_hal_msp.c ****   * This software is licensed under terms that can be found in the LICENSE file
  15:Core/Src/stm32f4xx_hal_msp.c ****   * in the root directory of this software component.
  16:Core/Src/stm32f4xx_hal_msp.c ****   * If no LICENSE file comes with this software, it is provided AS-IS.
  17:Core/Src/stm32f4xx_hal_msp.c ****   *
  18:Core/Src/stm32f4xx_hal_msp.c ****   ******************************************************************************
  19:Core/Src/stm32f4xx_hal_msp.c ****   */
  20:Core/Src/stm32f4xx_hal_msp.c **** /* USER CODE END Header */
  21:Core/Src/stm32f4xx_hal_msp.c **** 
  22:Core/Src/stm32f4xx_hal_msp.c **** /* Includes ------------------------------------------------------------------*/
  23:Core/Src/stm32f4xx_hal_msp.c **** #include "main.h"
  24:Core/Src/stm32f4xx_hal_msp.c **** /* USER CODE BEGIN Includes */
  25:Core/Src/stm32f4xx_hal_msp.c **** 
  26:Core/Src/stm32f4xx_hal_msp.c **** /* USER CODE END Includes */
  27:Core/Src/stm32f4xx_hal_msp.c **** 
  28:Core/Src/stm32f4xx_hal_msp.c **** /* Private typedef -----------------------------------------------------------*/
  29:Core/Src/stm32f4xx_hal_msp.c **** /* USER CODE BEGIN TD */
  30:Core/Src/stm32f4xx_hal_msp.c **** 
ARM GAS  C:\Users\tugru\AppData\Local\Temp\ccfrz6hu.s 			page 2


  31:Core/Src/stm32f4xx_hal_msp.c **** /* USER CODE END TD */
  32:Core/Src/stm32f4xx_hal_msp.c **** 
  33:Core/Src/stm32f4xx_hal_msp.c **** /* Private define ------------------------------------------------------------*/
  34:Core/Src/stm32f4xx_hal_msp.c **** /* USER CODE BEGIN Define */
  35:Core/Src/stm32f4xx_hal_msp.c **** 
  36:Core/Src/stm32f4xx_hal_msp.c **** /* USER CODE END Define */
  37:Core/Src/stm32f4xx_hal_msp.c **** 
  38:Core/Src/stm32f4xx_hal_msp.c **** /* Private macro -------------------------------------------------------------*/
  39:Core/Src/stm32f4xx_hal_msp.c **** /* USER CODE BEGIN Macro */
  40:Core/Src/stm32f4xx_hal_msp.c **** 
  41:Core/Src/stm32f4xx_hal_msp.c **** /* USER CODE END Macro */
  42:Core/Src/stm32f4xx_hal_msp.c **** 
  43:Core/Src/stm32f4xx_hal_msp.c **** /* Private variables ---------------------------------------------------------*/
  44:Core/Src/stm32f4xx_hal_msp.c **** /* USER CODE BEGIN PV */
  45:Core/Src/stm32f4xx_hal_msp.c **** 
  46:Core/Src/stm32f4xx_hal_msp.c **** /* USER CODE END PV */
  47:Core/Src/stm32f4xx_hal_msp.c **** 
  48:Core/Src/stm32f4xx_hal_msp.c **** /* Private function prototypes -----------------------------------------------*/
  49:Core/Src/stm32f4xx_hal_msp.c **** /* USER CODE BEGIN PFP */
  50:Core/Src/stm32f4xx_hal_msp.c **** 
  51:Core/Src/stm32f4xx_hal_msp.c **** /* USER CODE END PFP */
  52:Core/Src/stm32f4xx_hal_msp.c **** 
  53:Core/Src/stm32f4xx_hal_msp.c **** /* External functions --------------------------------------------------------*/
  54:Core/Src/stm32f4xx_hal_msp.c **** /* USER CODE BEGIN ExternalFunctions */
  55:Core/Src/stm32f4xx_hal_msp.c **** 
  56:Core/Src/stm32f4xx_hal_msp.c **** /* USER CODE END ExternalFunctions */
  57:Core/Src/stm32f4xx_hal_msp.c **** 
  58:Core/Src/stm32f4xx_hal_msp.c **** /* USER CODE BEGIN 0 */
  59:Core/Src/stm32f4xx_hal_msp.c **** 
  60:Core/Src/stm32f4xx_hal_msp.c **** /* USER CODE END 0 */
  61:Core/Src/stm32f4xx_hal_msp.c **** /**
  62:Core/Src/stm32f4xx_hal_msp.c ****   * Initializes the Global MSP.
  63:Core/Src/stm32f4xx_hal_msp.c ****   */
  64:Core/Src/stm32f4xx_hal_msp.c **** void HAL_MspInit(void)
  65:Core/Src/stm32f4xx_hal_msp.c **** {
  29              		.loc 1 65 1 view -0
  30              		.cfi_startproc
  31              		@ args = 0, pretend = 0, frame = 8
  32              		@ frame_needed = 0, uses_anonymous_args = 0
  33 0000 00B5     		push	{lr}
  34              	.LCFI0:
  35              		.cfi_def_cfa_offset 4
  36              		.cfi_offset 14, -4
  37 0002 83B0     		sub	sp, sp, #12
  38              	.LCFI1:
  39              		.cfi_def_cfa_offset 16
  66:Core/Src/stm32f4xx_hal_msp.c **** 
  67:Core/Src/stm32f4xx_hal_msp.c ****   /* USER CODE BEGIN MspInit 0 */
  68:Core/Src/stm32f4xx_hal_msp.c **** 
  69:Core/Src/stm32f4xx_hal_msp.c ****   /* USER CODE END MspInit 0 */
  70:Core/Src/stm32f4xx_hal_msp.c **** 
  71:Core/Src/stm32f4xx_hal_msp.c ****   __HAL_RCC_SYSCFG_CLK_ENABLE();
  40              		.loc 1 71 3 view .LVU1
  41              	.LBB2:
  42              		.loc 1 71 3 view .LVU2
  43 0004 0021     		movs	r1, #0
  44 0006 0091     		str	r1, [sp]
ARM GAS  C:\Users\tugru\AppData\Local\Temp\ccfrz6hu.s 			page 3


  45              		.loc 1 71 3 view .LVU3
  46 0008 0C4B     		ldr	r3, .L3
  47 000a 5A6C     		ldr	r2, [r3, #68]
  48 000c 42F48042 		orr	r2, r2, #16384
  49 0010 5A64     		str	r2, [r3, #68]
  50              		.loc 1 71 3 view .LVU4
  51 0012 5A6C     		ldr	r2, [r3, #68]
  52 0014 02F48042 		and	r2, r2, #16384
  53 0018 0092     		str	r2, [sp]
  54              		.loc 1 71 3 view .LVU5
  55 001a 009A     		ldr	r2, [sp]
  56              	.LBE2:
  57              		.loc 1 71 3 view .LVU6
  72:Core/Src/stm32f4xx_hal_msp.c ****   __HAL_RCC_PWR_CLK_ENABLE();
  58              		.loc 1 72 3 view .LVU7
  59              	.LBB3:
  60              		.loc 1 72 3 view .LVU8
  61 001c 0191     		str	r1, [sp, #4]
  62              		.loc 1 72 3 view .LVU9
  63 001e 1A6C     		ldr	r2, [r3, #64]
  64 0020 42F08052 		orr	r2, r2, #268435456
  65 0024 1A64     		str	r2, [r3, #64]
  66              		.loc 1 72 3 view .LVU10
  67 0026 1B6C     		ldr	r3, [r3, #64]
  68 0028 03F08053 		and	r3, r3, #268435456
  69 002c 0193     		str	r3, [sp, #4]
  70              		.loc 1 72 3 view .LVU11
  71 002e 019B     		ldr	r3, [sp, #4]
  72              	.LBE3:
  73              		.loc 1 72 3 view .LVU12
  73:Core/Src/stm32f4xx_hal_msp.c **** 
  74:Core/Src/stm32f4xx_hal_msp.c ****   HAL_NVIC_SetPriorityGrouping(NVIC_PRIORITYGROUP_0);
  74              		.loc 1 74 3 view .LVU13
  75 0030 0720     		movs	r0, #7
  76 0032 FFF7FEFF 		bl	HAL_NVIC_SetPriorityGrouping
  77              	.LVL0:
  75:Core/Src/stm32f4xx_hal_msp.c **** 
  76:Core/Src/stm32f4xx_hal_msp.c ****   /* System interrupt init*/
  77:Core/Src/stm32f4xx_hal_msp.c **** 
  78:Core/Src/stm32f4xx_hal_msp.c ****   /* USER CODE BEGIN MspInit 1 */
  79:Core/Src/stm32f4xx_hal_msp.c **** 
  80:Core/Src/stm32f4xx_hal_msp.c ****   /* USER CODE END MspInit 1 */
  81:Core/Src/stm32f4xx_hal_msp.c **** }
  78              		.loc 1 81 1 is_stmt 0 view .LVU14
  79 0036 03B0     		add	sp, sp, #12
  80              	.LCFI2:
  81              		.cfi_def_cfa_offset 4
  82              		@ sp needed
  83 0038 5DF804FB 		ldr	pc, [sp], #4
  84              	.L4:
  85              		.align	2
  86              	.L3:
  87 003c 00380240 		.word	1073887232
  88              		.cfi_endproc
  89              	.LFE220:
  91              		.section	.text.HAL_ADC_MspInit,"ax",%progbits
  92              		.align	1
ARM GAS  C:\Users\tugru\AppData\Local\Temp\ccfrz6hu.s 			page 4


  93              		.global	HAL_ADC_MspInit
  94              		.syntax unified
  95              		.thumb
  96              		.thumb_func
  98              	HAL_ADC_MspInit:
  99              	.LVL1:
 100              	.LFB221:
  82:Core/Src/stm32f4xx_hal_msp.c **** 
  83:Core/Src/stm32f4xx_hal_msp.c **** /**
  84:Core/Src/stm32f4xx_hal_msp.c **** * @brief ADC MSP Initialization
  85:Core/Src/stm32f4xx_hal_msp.c **** * This function configures the hardware resources used in this example
  86:Core/Src/stm32f4xx_hal_msp.c **** * @param hadc: ADC handle pointer
  87:Core/Src/stm32f4xx_hal_msp.c **** * @retval None
  88:Core/Src/stm32f4xx_hal_msp.c **** */
  89:Core/Src/stm32f4xx_hal_msp.c **** void HAL_ADC_MspInit(ADC_HandleTypeDef* hadc)
  90:Core/Src/stm32f4xx_hal_msp.c **** {
 101              		.loc 1 90 1 is_stmt 1 view -0
 102              		.cfi_startproc
 103              		@ args = 0, pretend = 0, frame = 32
 104              		@ frame_needed = 0, uses_anonymous_args = 0
 105              		.loc 1 90 1 is_stmt 0 view .LVU16
 106 0000 00B5     		push	{lr}
 107              	.LCFI3:
 108              		.cfi_def_cfa_offset 4
 109              		.cfi_offset 14, -4
 110 0002 89B0     		sub	sp, sp, #36
 111              	.LCFI4:
 112              		.cfi_def_cfa_offset 40
  91:Core/Src/stm32f4xx_hal_msp.c ****   GPIO_InitTypeDef GPIO_InitStruct = {0};
 113              		.loc 1 91 3 is_stmt 1 view .LVU17
 114              		.loc 1 91 20 is_stmt 0 view .LVU18
 115 0004 0023     		movs	r3, #0
 116 0006 0393     		str	r3, [sp, #12]
 117 0008 0493     		str	r3, [sp, #16]
 118 000a 0593     		str	r3, [sp, #20]
 119 000c 0693     		str	r3, [sp, #24]
 120 000e 0793     		str	r3, [sp, #28]
  92:Core/Src/stm32f4xx_hal_msp.c ****   if(hadc->Instance==ADC1)
 121              		.loc 1 92 3 is_stmt 1 view .LVU19
 122              		.loc 1 92 10 is_stmt 0 view .LVU20
 123 0010 0268     		ldr	r2, [r0]
 124              		.loc 1 92 5 view .LVU21
 125 0012 03F18043 		add	r3, r3, #1073741824
 126 0016 03F59033 		add	r3, r3, #73728
 127 001a 9A42     		cmp	r2, r3
 128 001c 02D0     		beq	.L8
 129              	.LVL2:
 130              	.L5:
  93:Core/Src/stm32f4xx_hal_msp.c ****   {
  94:Core/Src/stm32f4xx_hal_msp.c ****   /* USER CODE BEGIN ADC1_MspInit 0 */
  95:Core/Src/stm32f4xx_hal_msp.c **** 
  96:Core/Src/stm32f4xx_hal_msp.c ****   /* USER CODE END ADC1_MspInit 0 */
  97:Core/Src/stm32f4xx_hal_msp.c ****     /* Peripheral clock enable */
  98:Core/Src/stm32f4xx_hal_msp.c ****     __HAL_RCC_ADC1_CLK_ENABLE();
  99:Core/Src/stm32f4xx_hal_msp.c **** 
 100:Core/Src/stm32f4xx_hal_msp.c ****     __HAL_RCC_GPIOA_CLK_ENABLE();
 101:Core/Src/stm32f4xx_hal_msp.c ****     /**ADC1 GPIO Configuration
ARM GAS  C:\Users\tugru\AppData\Local\Temp\ccfrz6hu.s 			page 5


 102:Core/Src/stm32f4xx_hal_msp.c ****     PA0-WKUP     ------> ADC1_IN0
 103:Core/Src/stm32f4xx_hal_msp.c ****     */
 104:Core/Src/stm32f4xx_hal_msp.c ****     GPIO_InitStruct.Pin = GPIO_PIN_0;
 105:Core/Src/stm32f4xx_hal_msp.c ****     GPIO_InitStruct.Mode = GPIO_MODE_ANALOG;
 106:Core/Src/stm32f4xx_hal_msp.c ****     GPIO_InitStruct.Pull = GPIO_NOPULL;
 107:Core/Src/stm32f4xx_hal_msp.c ****     HAL_GPIO_Init(GPIOA, &GPIO_InitStruct);
 108:Core/Src/stm32f4xx_hal_msp.c **** 
 109:Core/Src/stm32f4xx_hal_msp.c ****   /* USER CODE BEGIN ADC1_MspInit 1 */
 110:Core/Src/stm32f4xx_hal_msp.c **** 
 111:Core/Src/stm32f4xx_hal_msp.c ****   /* USER CODE END ADC1_MspInit 1 */
 112:Core/Src/stm32f4xx_hal_msp.c **** 
 113:Core/Src/stm32f4xx_hal_msp.c ****   }
 114:Core/Src/stm32f4xx_hal_msp.c **** 
 115:Core/Src/stm32f4xx_hal_msp.c **** }
 131              		.loc 1 115 1 view .LVU22
 132 001e 09B0     		add	sp, sp, #36
 133              	.LCFI5:
 134              		.cfi_remember_state
 135              		.cfi_def_cfa_offset 4
 136              		@ sp needed
 137 0020 5DF804FB 		ldr	pc, [sp], #4
 138              	.LVL3:
 139              	.L8:
 140              	.LCFI6:
 141              		.cfi_restore_state
  98:Core/Src/stm32f4xx_hal_msp.c **** 
 142              		.loc 1 98 5 is_stmt 1 view .LVU23
 143              	.LBB4:
  98:Core/Src/stm32f4xx_hal_msp.c **** 
 144              		.loc 1 98 5 view .LVU24
 145 0024 0021     		movs	r1, #0
 146 0026 0191     		str	r1, [sp, #4]
  98:Core/Src/stm32f4xx_hal_msp.c **** 
 147              		.loc 1 98 5 view .LVU25
 148 0028 03F58C33 		add	r3, r3, #71680
 149 002c 5A6C     		ldr	r2, [r3, #68]
 150 002e 42F48072 		orr	r2, r2, #256
 151 0032 5A64     		str	r2, [r3, #68]
  98:Core/Src/stm32f4xx_hal_msp.c **** 
 152              		.loc 1 98 5 view .LVU26
 153 0034 5A6C     		ldr	r2, [r3, #68]
 154 0036 02F48072 		and	r2, r2, #256
 155 003a 0192     		str	r2, [sp, #4]
  98:Core/Src/stm32f4xx_hal_msp.c **** 
 156              		.loc 1 98 5 view .LVU27
 157 003c 019A     		ldr	r2, [sp, #4]
 158              	.LBE4:
  98:Core/Src/stm32f4xx_hal_msp.c **** 
 159              		.loc 1 98 5 view .LVU28
 100:Core/Src/stm32f4xx_hal_msp.c ****     /**ADC1 GPIO Configuration
 160              		.loc 1 100 5 view .LVU29
 161              	.LBB5:
 100:Core/Src/stm32f4xx_hal_msp.c ****     /**ADC1 GPIO Configuration
 162              		.loc 1 100 5 view .LVU30
 163 003e 0291     		str	r1, [sp, #8]
 100:Core/Src/stm32f4xx_hal_msp.c ****     /**ADC1 GPIO Configuration
 164              		.loc 1 100 5 view .LVU31
ARM GAS  C:\Users\tugru\AppData\Local\Temp\ccfrz6hu.s 			page 6


 165 0040 1A6B     		ldr	r2, [r3, #48]
 166 0042 42F00102 		orr	r2, r2, #1
 167 0046 1A63     		str	r2, [r3, #48]
 100:Core/Src/stm32f4xx_hal_msp.c ****     /**ADC1 GPIO Configuration
 168              		.loc 1 100 5 view .LVU32
 169 0048 1B6B     		ldr	r3, [r3, #48]
 170 004a 03F00103 		and	r3, r3, #1
 171 004e 0293     		str	r3, [sp, #8]
 100:Core/Src/stm32f4xx_hal_msp.c ****     /**ADC1 GPIO Configuration
 172              		.loc 1 100 5 view .LVU33
 173 0050 029B     		ldr	r3, [sp, #8]
 174              	.LBE5:
 100:Core/Src/stm32f4xx_hal_msp.c ****     /**ADC1 GPIO Configuration
 175              		.loc 1 100 5 view .LVU34
 104:Core/Src/stm32f4xx_hal_msp.c ****     GPIO_InitStruct.Mode = GPIO_MODE_ANALOG;
 176              		.loc 1 104 5 view .LVU35
 104:Core/Src/stm32f4xx_hal_msp.c ****     GPIO_InitStruct.Mode = GPIO_MODE_ANALOG;
 177              		.loc 1 104 25 is_stmt 0 view .LVU36
 178 0052 0123     		movs	r3, #1
 179 0054 0393     		str	r3, [sp, #12]
 105:Core/Src/stm32f4xx_hal_msp.c ****     GPIO_InitStruct.Pull = GPIO_NOPULL;
 180              		.loc 1 105 5 is_stmt 1 view .LVU37
 105:Core/Src/stm32f4xx_hal_msp.c ****     GPIO_InitStruct.Pull = GPIO_NOPULL;
 181              		.loc 1 105 26 is_stmt 0 view .LVU38
 182 0056 0323     		movs	r3, #3
 183 0058 0493     		str	r3, [sp, #16]
 106:Core/Src/stm32f4xx_hal_msp.c ****     HAL_GPIO_Init(GPIOA, &GPIO_InitStruct);
 184              		.loc 1 106 5 is_stmt 1 view .LVU39
 107:Core/Src/stm32f4xx_hal_msp.c **** 
 185              		.loc 1 107 5 view .LVU40
 186 005a 03A9     		add	r1, sp, #12
 187 005c 0148     		ldr	r0, .L9
 188              	.LVL4:
 107:Core/Src/stm32f4xx_hal_msp.c **** 
 189              		.loc 1 107 5 is_stmt 0 view .LVU41
 190 005e FFF7FEFF 		bl	HAL_GPIO_Init
 191              	.LVL5:
 192              		.loc 1 115 1 view .LVU42
 193 0062 DCE7     		b	.L5
 194              	.L10:
 195              		.align	2
 196              	.L9:
 197 0064 00000240 		.word	1073872896
 198              		.cfi_endproc
 199              	.LFE221:
 201              		.section	.text.HAL_ADC_MspDeInit,"ax",%progbits
 202              		.align	1
 203              		.global	HAL_ADC_MspDeInit
 204              		.syntax unified
 205              		.thumb
 206              		.thumb_func
 208              	HAL_ADC_MspDeInit:
 209              	.LVL6:
 210              	.LFB222:
 116:Core/Src/stm32f4xx_hal_msp.c **** 
 117:Core/Src/stm32f4xx_hal_msp.c **** /**
 118:Core/Src/stm32f4xx_hal_msp.c **** * @brief ADC MSP De-Initialization
ARM GAS  C:\Users\tugru\AppData\Local\Temp\ccfrz6hu.s 			page 7


 119:Core/Src/stm32f4xx_hal_msp.c **** * This function freeze the hardware resources used in this example
 120:Core/Src/stm32f4xx_hal_msp.c **** * @param hadc: ADC handle pointer
 121:Core/Src/stm32f4xx_hal_msp.c **** * @retval None
 122:Core/Src/stm32f4xx_hal_msp.c **** */
 123:Core/Src/stm32f4xx_hal_msp.c **** void HAL_ADC_MspDeInit(ADC_HandleTypeDef* hadc)
 124:Core/Src/stm32f4xx_hal_msp.c **** {
 211              		.loc 1 124 1 is_stmt 1 view -0
 212              		.cfi_startproc
 213              		@ args = 0, pretend = 0, frame = 0
 214              		@ frame_needed = 0, uses_anonymous_args = 0
 215              		.loc 1 124 1 is_stmt 0 view .LVU44
 216 0000 08B5     		push	{r3, lr}
 217              	.LCFI7:
 218              		.cfi_def_cfa_offset 8
 219              		.cfi_offset 3, -8
 220              		.cfi_offset 14, -4
 125:Core/Src/stm32f4xx_hal_msp.c ****   if(hadc->Instance==ADC1)
 221              		.loc 1 125 3 is_stmt 1 view .LVU45
 222              		.loc 1 125 10 is_stmt 0 view .LVU46
 223 0002 0268     		ldr	r2, [r0]
 224              		.loc 1 125 5 view .LVU47
 225 0004 064B     		ldr	r3, .L15
 226 0006 9A42     		cmp	r2, r3
 227 0008 00D0     		beq	.L14
 228              	.LVL7:
 229              	.L11:
 126:Core/Src/stm32f4xx_hal_msp.c ****   {
 127:Core/Src/stm32f4xx_hal_msp.c ****   /* USER CODE BEGIN ADC1_MspDeInit 0 */
 128:Core/Src/stm32f4xx_hal_msp.c **** 
 129:Core/Src/stm32f4xx_hal_msp.c ****   /* USER CODE END ADC1_MspDeInit 0 */
 130:Core/Src/stm32f4xx_hal_msp.c ****     /* Peripheral clock disable */
 131:Core/Src/stm32f4xx_hal_msp.c ****     __HAL_RCC_ADC1_CLK_DISABLE();
 132:Core/Src/stm32f4xx_hal_msp.c **** 
 133:Core/Src/stm32f4xx_hal_msp.c ****     /**ADC1 GPIO Configuration
 134:Core/Src/stm32f4xx_hal_msp.c ****     PA0-WKUP     ------> ADC1_IN0
 135:Core/Src/stm32f4xx_hal_msp.c ****     */
 136:Core/Src/stm32f4xx_hal_msp.c ****     HAL_GPIO_DeInit(GPIOA, GPIO_PIN_0);
 137:Core/Src/stm32f4xx_hal_msp.c **** 
 138:Core/Src/stm32f4xx_hal_msp.c ****   /* USER CODE BEGIN ADC1_MspDeInit 1 */
 139:Core/Src/stm32f4xx_hal_msp.c **** 
 140:Core/Src/stm32f4xx_hal_msp.c ****   /* USER CODE END ADC1_MspDeInit 1 */
 141:Core/Src/stm32f4xx_hal_msp.c ****   }
 142:Core/Src/stm32f4xx_hal_msp.c **** 
 143:Core/Src/stm32f4xx_hal_msp.c **** }
 230              		.loc 1 143 1 view .LVU48
 231 000a 08BD     		pop	{r3, pc}
 232              	.LVL8:
 233              	.L14:
 131:Core/Src/stm32f4xx_hal_msp.c **** 
 234              		.loc 1 131 5 is_stmt 1 view .LVU49
 235 000c 054A     		ldr	r2, .L15+4
 236 000e 536C     		ldr	r3, [r2, #68]
 237 0010 23F48073 		bic	r3, r3, #256
 238 0014 5364     		str	r3, [r2, #68]
 136:Core/Src/stm32f4xx_hal_msp.c **** 
 239              		.loc 1 136 5 view .LVU50
 240 0016 0121     		movs	r1, #1
ARM GAS  C:\Users\tugru\AppData\Local\Temp\ccfrz6hu.s 			page 8


 241 0018 0348     		ldr	r0, .L15+8
 242              	.LVL9:
 136:Core/Src/stm32f4xx_hal_msp.c **** 
 243              		.loc 1 136 5 is_stmt 0 view .LVU51
 244 001a FFF7FEFF 		bl	HAL_GPIO_DeInit
 245              	.LVL10:
 246              		.loc 1 143 1 view .LVU52
 247 001e F4E7     		b	.L11
 248              	.L16:
 249              		.align	2
 250              	.L15:
 251 0020 00200140 		.word	1073815552
 252 0024 00380240 		.word	1073887232
 253 0028 00000240 		.word	1073872896
 254              		.cfi_endproc
 255              	.LFE222:
 257              		.section	.text.HAL_SPI_MspInit,"ax",%progbits
 258              		.align	1
 259              		.global	HAL_SPI_MspInit
 260              		.syntax unified
 261              		.thumb
 262              		.thumb_func
 264              	HAL_SPI_MspInit:
 265              	.LVL11:
 266              	.LFB223:
 144:Core/Src/stm32f4xx_hal_msp.c **** 
 145:Core/Src/stm32f4xx_hal_msp.c **** /**
 146:Core/Src/stm32f4xx_hal_msp.c **** * @brief SPI MSP Initialization
 147:Core/Src/stm32f4xx_hal_msp.c **** * This function configures the hardware resources used in this example
 148:Core/Src/stm32f4xx_hal_msp.c **** * @param hspi: SPI handle pointer
 149:Core/Src/stm32f4xx_hal_msp.c **** * @retval None
 150:Core/Src/stm32f4xx_hal_msp.c **** */
 151:Core/Src/stm32f4xx_hal_msp.c **** void HAL_SPI_MspInit(SPI_HandleTypeDef* hspi)
 152:Core/Src/stm32f4xx_hal_msp.c **** {
 267              		.loc 1 152 1 is_stmt 1 view -0
 268              		.cfi_startproc
 269              		@ args = 0, pretend = 0, frame = 32
 270              		@ frame_needed = 0, uses_anonymous_args = 0
 271              		.loc 1 152 1 is_stmt 0 view .LVU54
 272 0000 F0B5     		push	{r4, r5, r6, r7, lr}
 273              	.LCFI8:
 274              		.cfi_def_cfa_offset 20
 275              		.cfi_offset 4, -20
 276              		.cfi_offset 5, -16
 277              		.cfi_offset 6, -12
 278              		.cfi_offset 7, -8
 279              		.cfi_offset 14, -4
 280 0002 89B0     		sub	sp, sp, #36
 281              	.LCFI9:
 282              		.cfi_def_cfa_offset 56
 153:Core/Src/stm32f4xx_hal_msp.c ****   GPIO_InitTypeDef GPIO_InitStruct = {0};
 283              		.loc 1 153 3 is_stmt 1 view .LVU55
 284              		.loc 1 153 20 is_stmt 0 view .LVU56
 285 0004 0023     		movs	r3, #0
 286 0006 0393     		str	r3, [sp, #12]
 287 0008 0493     		str	r3, [sp, #16]
 288 000a 0593     		str	r3, [sp, #20]
ARM GAS  C:\Users\tugru\AppData\Local\Temp\ccfrz6hu.s 			page 9


 289 000c 0693     		str	r3, [sp, #24]
 290 000e 0793     		str	r3, [sp, #28]
 154:Core/Src/stm32f4xx_hal_msp.c ****   if(hspi->Instance==SPI2)
 291              		.loc 1 154 3 is_stmt 1 view .LVU57
 292              		.loc 1 154 10 is_stmt 0 view .LVU58
 293 0010 0268     		ldr	r2, [r0]
 294              		.loc 1 154 5 view .LVU59
 295 0012 1F4B     		ldr	r3, .L21
 296 0014 9A42     		cmp	r2, r3
 297 0016 01D0     		beq	.L20
 298              	.LVL12:
 299              	.L17:
 155:Core/Src/stm32f4xx_hal_msp.c ****   {
 156:Core/Src/stm32f4xx_hal_msp.c ****   /* USER CODE BEGIN SPI2_MspInit 0 */
 157:Core/Src/stm32f4xx_hal_msp.c **** 
 158:Core/Src/stm32f4xx_hal_msp.c ****   /* USER CODE END SPI2_MspInit 0 */
 159:Core/Src/stm32f4xx_hal_msp.c ****     /* Peripheral clock enable */
 160:Core/Src/stm32f4xx_hal_msp.c ****     __HAL_RCC_SPI2_CLK_ENABLE();
 161:Core/Src/stm32f4xx_hal_msp.c **** 
 162:Core/Src/stm32f4xx_hal_msp.c ****     __HAL_RCC_GPIOC_CLK_ENABLE();
 163:Core/Src/stm32f4xx_hal_msp.c ****     __HAL_RCC_GPIOB_CLK_ENABLE();
 164:Core/Src/stm32f4xx_hal_msp.c ****     /**SPI2 GPIO Configuration
 165:Core/Src/stm32f4xx_hal_msp.c ****     PC2     ------> SPI2_MISO
 166:Core/Src/stm32f4xx_hal_msp.c ****     PC3     ------> SPI2_MOSI
 167:Core/Src/stm32f4xx_hal_msp.c ****     PB10     ------> SPI2_SCK
 168:Core/Src/stm32f4xx_hal_msp.c ****     PB12     ------> SPI2_NSS
 169:Core/Src/stm32f4xx_hal_msp.c ****     */
 170:Core/Src/stm32f4xx_hal_msp.c ****     GPIO_InitStruct.Pin = GPIO_PIN_2|GPIO_PIN_3;
 171:Core/Src/stm32f4xx_hal_msp.c ****     GPIO_InitStruct.Mode = GPIO_MODE_AF_PP;
 172:Core/Src/stm32f4xx_hal_msp.c ****     GPIO_InitStruct.Pull = GPIO_NOPULL;
 173:Core/Src/stm32f4xx_hal_msp.c ****     GPIO_InitStruct.Speed = GPIO_SPEED_FREQ_VERY_HIGH;
 174:Core/Src/stm32f4xx_hal_msp.c ****     GPIO_InitStruct.Alternate = GPIO_AF5_SPI2;
 175:Core/Src/stm32f4xx_hal_msp.c ****     HAL_GPIO_Init(GPIOC, &GPIO_InitStruct);
 176:Core/Src/stm32f4xx_hal_msp.c **** 
 177:Core/Src/stm32f4xx_hal_msp.c ****     GPIO_InitStruct.Pin = GPIO_PIN_10|GPIO_PIN_12;
 178:Core/Src/stm32f4xx_hal_msp.c ****     GPIO_InitStruct.Mode = GPIO_MODE_AF_PP;
 179:Core/Src/stm32f4xx_hal_msp.c ****     GPIO_InitStruct.Pull = GPIO_NOPULL;
 180:Core/Src/stm32f4xx_hal_msp.c ****     GPIO_InitStruct.Speed = GPIO_SPEED_FREQ_VERY_HIGH;
 181:Core/Src/stm32f4xx_hal_msp.c ****     GPIO_InitStruct.Alternate = GPIO_AF5_SPI2;
 182:Core/Src/stm32f4xx_hal_msp.c ****     HAL_GPIO_Init(GPIOB, &GPIO_InitStruct);
 183:Core/Src/stm32f4xx_hal_msp.c **** 
 184:Core/Src/stm32f4xx_hal_msp.c ****   /* USER CODE BEGIN SPI2_MspInit 1 */
 185:Core/Src/stm32f4xx_hal_msp.c **** 
 186:Core/Src/stm32f4xx_hal_msp.c ****   /* USER CODE END SPI2_MspInit 1 */
 187:Core/Src/stm32f4xx_hal_msp.c **** 
 188:Core/Src/stm32f4xx_hal_msp.c ****   }
 189:Core/Src/stm32f4xx_hal_msp.c **** 
 190:Core/Src/stm32f4xx_hal_msp.c **** }
 300              		.loc 1 190 1 view .LVU60
 301 0018 09B0     		add	sp, sp, #36
 302              	.LCFI10:
 303              		.cfi_remember_state
 304              		.cfi_def_cfa_offset 20
 305              		@ sp needed
 306 001a F0BD     		pop	{r4, r5, r6, r7, pc}
 307              	.LVL13:
 308              	.L20:
ARM GAS  C:\Users\tugru\AppData\Local\Temp\ccfrz6hu.s 			page 10


 309              	.LCFI11:
 310              		.cfi_restore_state
 160:Core/Src/stm32f4xx_hal_msp.c **** 
 311              		.loc 1 160 5 is_stmt 1 view .LVU61
 312              	.LBB6:
 160:Core/Src/stm32f4xx_hal_msp.c **** 
 313              		.loc 1 160 5 view .LVU62
 314 001c 0024     		movs	r4, #0
 315 001e 0094     		str	r4, [sp]
 160:Core/Src/stm32f4xx_hal_msp.c **** 
 316              		.loc 1 160 5 view .LVU63
 317 0020 03F50033 		add	r3, r3, #131072
 318 0024 1A6C     		ldr	r2, [r3, #64]
 319 0026 42F48042 		orr	r2, r2, #16384
 320 002a 1A64     		str	r2, [r3, #64]
 160:Core/Src/stm32f4xx_hal_msp.c **** 
 321              		.loc 1 160 5 view .LVU64
 322 002c 1A6C     		ldr	r2, [r3, #64]
 323 002e 02F48042 		and	r2, r2, #16384
 324 0032 0092     		str	r2, [sp]
 160:Core/Src/stm32f4xx_hal_msp.c **** 
 325              		.loc 1 160 5 view .LVU65
 326 0034 009A     		ldr	r2, [sp]
 327              	.LBE6:
 160:Core/Src/stm32f4xx_hal_msp.c **** 
 328              		.loc 1 160 5 view .LVU66
 162:Core/Src/stm32f4xx_hal_msp.c ****     __HAL_RCC_GPIOB_CLK_ENABLE();
 329              		.loc 1 162 5 view .LVU67
 330              	.LBB7:
 162:Core/Src/stm32f4xx_hal_msp.c ****     __HAL_RCC_GPIOB_CLK_ENABLE();
 331              		.loc 1 162 5 view .LVU68
 332 0036 0194     		str	r4, [sp, #4]
 162:Core/Src/stm32f4xx_hal_msp.c ****     __HAL_RCC_GPIOB_CLK_ENABLE();
 333              		.loc 1 162 5 view .LVU69
 334 0038 1A6B     		ldr	r2, [r3, #48]
 335 003a 42F00402 		orr	r2, r2, #4
 336 003e 1A63     		str	r2, [r3, #48]
 162:Core/Src/stm32f4xx_hal_msp.c ****     __HAL_RCC_GPIOB_CLK_ENABLE();
 337              		.loc 1 162 5 view .LVU70
 338 0040 1A6B     		ldr	r2, [r3, #48]
 339 0042 02F00402 		and	r2, r2, #4
 340 0046 0192     		str	r2, [sp, #4]
 162:Core/Src/stm32f4xx_hal_msp.c ****     __HAL_RCC_GPIOB_CLK_ENABLE();
 341              		.loc 1 162 5 view .LVU71
 342 0048 019A     		ldr	r2, [sp, #4]
 343              	.LBE7:
 162:Core/Src/stm32f4xx_hal_msp.c ****     __HAL_RCC_GPIOB_CLK_ENABLE();
 344              		.loc 1 162 5 view .LVU72
 163:Core/Src/stm32f4xx_hal_msp.c ****     /**SPI2 GPIO Configuration
 345              		.loc 1 163 5 view .LVU73
 346              	.LBB8:
 163:Core/Src/stm32f4xx_hal_msp.c ****     /**SPI2 GPIO Configuration
 347              		.loc 1 163 5 view .LVU74
 348 004a 0294     		str	r4, [sp, #8]
 163:Core/Src/stm32f4xx_hal_msp.c ****     /**SPI2 GPIO Configuration
 349              		.loc 1 163 5 view .LVU75
 350 004c 1A6B     		ldr	r2, [r3, #48]
ARM GAS  C:\Users\tugru\AppData\Local\Temp\ccfrz6hu.s 			page 11


 351 004e 42F00202 		orr	r2, r2, #2
 352 0052 1A63     		str	r2, [r3, #48]
 163:Core/Src/stm32f4xx_hal_msp.c ****     /**SPI2 GPIO Configuration
 353              		.loc 1 163 5 view .LVU76
 354 0054 1B6B     		ldr	r3, [r3, #48]
 355 0056 03F00203 		and	r3, r3, #2
 356 005a 0293     		str	r3, [sp, #8]
 163:Core/Src/stm32f4xx_hal_msp.c ****     /**SPI2 GPIO Configuration
 357              		.loc 1 163 5 view .LVU77
 358 005c 029B     		ldr	r3, [sp, #8]
 359              	.LBE8:
 163:Core/Src/stm32f4xx_hal_msp.c ****     /**SPI2 GPIO Configuration
 360              		.loc 1 163 5 view .LVU78
 170:Core/Src/stm32f4xx_hal_msp.c ****     GPIO_InitStruct.Mode = GPIO_MODE_AF_PP;
 361              		.loc 1 170 5 view .LVU79
 170:Core/Src/stm32f4xx_hal_msp.c ****     GPIO_InitStruct.Mode = GPIO_MODE_AF_PP;
 362              		.loc 1 170 25 is_stmt 0 view .LVU80
 363 005e 0C23     		movs	r3, #12
 364 0060 0393     		str	r3, [sp, #12]
 171:Core/Src/stm32f4xx_hal_msp.c ****     GPIO_InitStruct.Pull = GPIO_NOPULL;
 365              		.loc 1 171 5 is_stmt 1 view .LVU81
 171:Core/Src/stm32f4xx_hal_msp.c ****     GPIO_InitStruct.Pull = GPIO_NOPULL;
 366              		.loc 1 171 26 is_stmt 0 view .LVU82
 367 0062 0227     		movs	r7, #2
 368 0064 0497     		str	r7, [sp, #16]
 172:Core/Src/stm32f4xx_hal_msp.c ****     GPIO_InitStruct.Speed = GPIO_SPEED_FREQ_VERY_HIGH;
 369              		.loc 1 172 5 is_stmt 1 view .LVU83
 173:Core/Src/stm32f4xx_hal_msp.c ****     GPIO_InitStruct.Alternate = GPIO_AF5_SPI2;
 370              		.loc 1 173 5 view .LVU84
 173:Core/Src/stm32f4xx_hal_msp.c ****     GPIO_InitStruct.Alternate = GPIO_AF5_SPI2;
 371              		.loc 1 173 27 is_stmt 0 view .LVU85
 372 0066 0326     		movs	r6, #3
 373 0068 0696     		str	r6, [sp, #24]
 174:Core/Src/stm32f4xx_hal_msp.c ****     HAL_GPIO_Init(GPIOC, &GPIO_InitStruct);
 374              		.loc 1 174 5 is_stmt 1 view .LVU86
 174:Core/Src/stm32f4xx_hal_msp.c ****     HAL_GPIO_Init(GPIOC, &GPIO_InitStruct);
 375              		.loc 1 174 31 is_stmt 0 view .LVU87
 376 006a 0525     		movs	r5, #5
 377 006c 0795     		str	r5, [sp, #28]
 175:Core/Src/stm32f4xx_hal_msp.c **** 
 378              		.loc 1 175 5 is_stmt 1 view .LVU88
 379 006e 0DEB0301 		add	r1, sp, r3
 380 0072 0848     		ldr	r0, .L21+4
 381              	.LVL14:
 175:Core/Src/stm32f4xx_hal_msp.c **** 
 382              		.loc 1 175 5 is_stmt 0 view .LVU89
 383 0074 FFF7FEFF 		bl	HAL_GPIO_Init
 384              	.LVL15:
 177:Core/Src/stm32f4xx_hal_msp.c ****     GPIO_InitStruct.Mode = GPIO_MODE_AF_PP;
 385              		.loc 1 177 5 is_stmt 1 view .LVU90
 177:Core/Src/stm32f4xx_hal_msp.c ****     GPIO_InitStruct.Mode = GPIO_MODE_AF_PP;
 386              		.loc 1 177 25 is_stmt 0 view .LVU91
 387 0078 4FF4A053 		mov	r3, #5120
 388 007c 0393     		str	r3, [sp, #12]
 178:Core/Src/stm32f4xx_hal_msp.c ****     GPIO_InitStruct.Pull = GPIO_NOPULL;
 389              		.loc 1 178 5 is_stmt 1 view .LVU92
 178:Core/Src/stm32f4xx_hal_msp.c ****     GPIO_InitStruct.Pull = GPIO_NOPULL;
ARM GAS  C:\Users\tugru\AppData\Local\Temp\ccfrz6hu.s 			page 12


 390              		.loc 1 178 26 is_stmt 0 view .LVU93
 391 007e 0497     		str	r7, [sp, #16]
 179:Core/Src/stm32f4xx_hal_msp.c ****     GPIO_InitStruct.Speed = GPIO_SPEED_FREQ_VERY_HIGH;
 392              		.loc 1 179 5 is_stmt 1 view .LVU94
 179:Core/Src/stm32f4xx_hal_msp.c ****     GPIO_InitStruct.Speed = GPIO_SPEED_FREQ_VERY_HIGH;
 393              		.loc 1 179 26 is_stmt 0 view .LVU95
 394 0080 0594     		str	r4, [sp, #20]
 180:Core/Src/stm32f4xx_hal_msp.c ****     GPIO_InitStruct.Alternate = GPIO_AF5_SPI2;
 395              		.loc 1 180 5 is_stmt 1 view .LVU96
 180:Core/Src/stm32f4xx_hal_msp.c ****     GPIO_InitStruct.Alternate = GPIO_AF5_SPI2;
 396              		.loc 1 180 27 is_stmt 0 view .LVU97
 397 0082 0696     		str	r6, [sp, #24]
 181:Core/Src/stm32f4xx_hal_msp.c ****     HAL_GPIO_Init(GPIOB, &GPIO_InitStruct);
 398              		.loc 1 181 5 is_stmt 1 view .LVU98
 181:Core/Src/stm32f4xx_hal_msp.c ****     HAL_GPIO_Init(GPIOB, &GPIO_InitStruct);
 399              		.loc 1 181 31 is_stmt 0 view .LVU99
 400 0084 0795     		str	r5, [sp, #28]
 182:Core/Src/stm32f4xx_hal_msp.c **** 
 401              		.loc 1 182 5 is_stmt 1 view .LVU100
 402 0086 03A9     		add	r1, sp, #12
 403 0088 0348     		ldr	r0, .L21+8
 404 008a FFF7FEFF 		bl	HAL_GPIO_Init
 405              	.LVL16:
 406              		.loc 1 190 1 is_stmt 0 view .LVU101
 407 008e C3E7     		b	.L17
 408              	.L22:
 409              		.align	2
 410              	.L21:
 411 0090 00380040 		.word	1073756160
 412 0094 00080240 		.word	1073874944
 413 0098 00040240 		.word	1073873920
 414              		.cfi_endproc
 415              	.LFE223:
 417              		.section	.text.HAL_SPI_MspDeInit,"ax",%progbits
 418              		.align	1
 419              		.global	HAL_SPI_MspDeInit
 420              		.syntax unified
 421              		.thumb
 422              		.thumb_func
 424              	HAL_SPI_MspDeInit:
 425              	.LVL17:
 426              	.LFB224:
 191:Core/Src/stm32f4xx_hal_msp.c **** 
 192:Core/Src/stm32f4xx_hal_msp.c **** /**
 193:Core/Src/stm32f4xx_hal_msp.c **** * @brief SPI MSP De-Initialization
 194:Core/Src/stm32f4xx_hal_msp.c **** * This function freeze the hardware resources used in this example
 195:Core/Src/stm32f4xx_hal_msp.c **** * @param hspi: SPI handle pointer
 196:Core/Src/stm32f4xx_hal_msp.c **** * @retval None
 197:Core/Src/stm32f4xx_hal_msp.c **** */
 198:Core/Src/stm32f4xx_hal_msp.c **** void HAL_SPI_MspDeInit(SPI_HandleTypeDef* hspi)
 199:Core/Src/stm32f4xx_hal_msp.c **** {
 427              		.loc 1 199 1 is_stmt 1 view -0
 428              		.cfi_startproc
 429              		@ args = 0, pretend = 0, frame = 0
 430              		@ frame_needed = 0, uses_anonymous_args = 0
 431              		.loc 1 199 1 is_stmt 0 view .LVU103
 432 0000 08B5     		push	{r3, lr}
ARM GAS  C:\Users\tugru\AppData\Local\Temp\ccfrz6hu.s 			page 13


 433              	.LCFI12:
 434              		.cfi_def_cfa_offset 8
 435              		.cfi_offset 3, -8
 436              		.cfi_offset 14, -4
 200:Core/Src/stm32f4xx_hal_msp.c ****   if(hspi->Instance==SPI2)
 437              		.loc 1 200 3 is_stmt 1 view .LVU104
 438              		.loc 1 200 10 is_stmt 0 view .LVU105
 439 0002 0268     		ldr	r2, [r0]
 440              		.loc 1 200 5 view .LVU106
 441 0004 094B     		ldr	r3, .L27
 442 0006 9A42     		cmp	r2, r3
 443 0008 00D0     		beq	.L26
 444              	.LVL18:
 445              	.L23:
 201:Core/Src/stm32f4xx_hal_msp.c ****   {
 202:Core/Src/stm32f4xx_hal_msp.c ****   /* USER CODE BEGIN SPI2_MspDeInit 0 */
 203:Core/Src/stm32f4xx_hal_msp.c **** 
 204:Core/Src/stm32f4xx_hal_msp.c ****   /* USER CODE END SPI2_MspDeInit 0 */
 205:Core/Src/stm32f4xx_hal_msp.c ****     /* Peripheral clock disable */
 206:Core/Src/stm32f4xx_hal_msp.c ****     __HAL_RCC_SPI2_CLK_DISABLE();
 207:Core/Src/stm32f4xx_hal_msp.c **** 
 208:Core/Src/stm32f4xx_hal_msp.c ****     /**SPI2 GPIO Configuration
 209:Core/Src/stm32f4xx_hal_msp.c ****     PC2     ------> SPI2_MISO
 210:Core/Src/stm32f4xx_hal_msp.c ****     PC3     ------> SPI2_MOSI
 211:Core/Src/stm32f4xx_hal_msp.c ****     PB10     ------> SPI2_SCK
 212:Core/Src/stm32f4xx_hal_msp.c ****     PB12     ------> SPI2_NSS
 213:Core/Src/stm32f4xx_hal_msp.c ****     */
 214:Core/Src/stm32f4xx_hal_msp.c ****     HAL_GPIO_DeInit(GPIOC, GPIO_PIN_2|GPIO_PIN_3);
 215:Core/Src/stm32f4xx_hal_msp.c **** 
 216:Core/Src/stm32f4xx_hal_msp.c ****     HAL_GPIO_DeInit(GPIOB, GPIO_PIN_10|GPIO_PIN_12);
 217:Core/Src/stm32f4xx_hal_msp.c **** 
 218:Core/Src/stm32f4xx_hal_msp.c ****   /* USER CODE BEGIN SPI2_MspDeInit 1 */
 219:Core/Src/stm32f4xx_hal_msp.c **** 
 220:Core/Src/stm32f4xx_hal_msp.c ****   /* USER CODE END SPI2_MspDeInit 1 */
 221:Core/Src/stm32f4xx_hal_msp.c ****   }
 222:Core/Src/stm32f4xx_hal_msp.c **** 
 223:Core/Src/stm32f4xx_hal_msp.c **** }
 446              		.loc 1 223 1 view .LVU107
 447 000a 08BD     		pop	{r3, pc}
 448              	.LVL19:
 449              	.L26:
 206:Core/Src/stm32f4xx_hal_msp.c **** 
 450              		.loc 1 206 5 is_stmt 1 view .LVU108
 451 000c 084A     		ldr	r2, .L27+4
 452 000e 136C     		ldr	r3, [r2, #64]
 453 0010 23F48043 		bic	r3, r3, #16384
 454 0014 1364     		str	r3, [r2, #64]
 214:Core/Src/stm32f4xx_hal_msp.c **** 
 455              		.loc 1 214 5 view .LVU109
 456 0016 0C21     		movs	r1, #12
 457 0018 0648     		ldr	r0, .L27+8
 458              	.LVL20:
 214:Core/Src/stm32f4xx_hal_msp.c **** 
 459              		.loc 1 214 5 is_stmt 0 view .LVU110
 460 001a FFF7FEFF 		bl	HAL_GPIO_DeInit
 461              	.LVL21:
 216:Core/Src/stm32f4xx_hal_msp.c **** 
ARM GAS  C:\Users\tugru\AppData\Local\Temp\ccfrz6hu.s 			page 14


 462              		.loc 1 216 5 is_stmt 1 view .LVU111
 463 001e 4FF4A051 		mov	r1, #5120
 464 0022 0548     		ldr	r0, .L27+12
 465 0024 FFF7FEFF 		bl	HAL_GPIO_DeInit
 466              	.LVL22:
 467              		.loc 1 223 1 is_stmt 0 view .LVU112
 468 0028 EFE7     		b	.L23
 469              	.L28:
 470 002a 00BF     		.align	2
 471              	.L27:
 472 002c 00380040 		.word	1073756160
 473 0030 00380240 		.word	1073887232
 474 0034 00080240 		.word	1073874944
 475 0038 00040240 		.word	1073873920
 476              		.cfi_endproc
 477              	.LFE224:
 479              		.section	.text.HAL_UART_MspInit,"ax",%progbits
 480              		.align	1
 481              		.global	HAL_UART_MspInit
 482              		.syntax unified
 483              		.thumb
 484              		.thumb_func
 486              	HAL_UART_MspInit:
 487              	.LVL23:
 488              	.LFB225:
 224:Core/Src/stm32f4xx_hal_msp.c **** 
 225:Core/Src/stm32f4xx_hal_msp.c **** /**
 226:Core/Src/stm32f4xx_hal_msp.c **** * @brief UART MSP Initialization
 227:Core/Src/stm32f4xx_hal_msp.c **** * This function configures the hardware resources used in this example
 228:Core/Src/stm32f4xx_hal_msp.c **** * @param huart: UART handle pointer
 229:Core/Src/stm32f4xx_hal_msp.c **** * @retval None
 230:Core/Src/stm32f4xx_hal_msp.c **** */
 231:Core/Src/stm32f4xx_hal_msp.c **** void HAL_UART_MspInit(UART_HandleTypeDef* huart)
 232:Core/Src/stm32f4xx_hal_msp.c **** {
 489              		.loc 1 232 1 is_stmt 1 view -0
 490              		.cfi_startproc
 491              		@ args = 0, pretend = 0, frame = 32
 492              		@ frame_needed = 0, uses_anonymous_args = 0
 493              		.loc 1 232 1 is_stmt 0 view .LVU114
 494 0000 00B5     		push	{lr}
 495              	.LCFI13:
 496              		.cfi_def_cfa_offset 4
 497              		.cfi_offset 14, -4
 498 0002 89B0     		sub	sp, sp, #36
 499              	.LCFI14:
 500              		.cfi_def_cfa_offset 40
 233:Core/Src/stm32f4xx_hal_msp.c ****   GPIO_InitTypeDef GPIO_InitStruct = {0};
 501              		.loc 1 233 3 is_stmt 1 view .LVU115
 502              		.loc 1 233 20 is_stmt 0 view .LVU116
 503 0004 0023     		movs	r3, #0
 504 0006 0393     		str	r3, [sp, #12]
 505 0008 0493     		str	r3, [sp, #16]
 506 000a 0593     		str	r3, [sp, #20]
 507 000c 0693     		str	r3, [sp, #24]
 508 000e 0793     		str	r3, [sp, #28]
 234:Core/Src/stm32f4xx_hal_msp.c ****   if(huart->Instance==USART2)
 509              		.loc 1 234 3 is_stmt 1 view .LVU117
ARM GAS  C:\Users\tugru\AppData\Local\Temp\ccfrz6hu.s 			page 15


 510              		.loc 1 234 11 is_stmt 0 view .LVU118
 511 0010 0268     		ldr	r2, [r0]
 512              		.loc 1 234 5 view .LVU119
 513 0012 154B     		ldr	r3, .L33
 514 0014 9A42     		cmp	r2, r3
 515 0016 02D0     		beq	.L32
 516              	.LVL24:
 517              	.L29:
 235:Core/Src/stm32f4xx_hal_msp.c ****   {
 236:Core/Src/stm32f4xx_hal_msp.c ****   /* USER CODE BEGIN USART2_MspInit 0 */
 237:Core/Src/stm32f4xx_hal_msp.c **** 
 238:Core/Src/stm32f4xx_hal_msp.c ****   /* USER CODE END USART2_MspInit 0 */
 239:Core/Src/stm32f4xx_hal_msp.c ****     /* Peripheral clock enable */
 240:Core/Src/stm32f4xx_hal_msp.c ****     __HAL_RCC_USART2_CLK_ENABLE();
 241:Core/Src/stm32f4xx_hal_msp.c **** 
 242:Core/Src/stm32f4xx_hal_msp.c ****     __HAL_RCC_GPIOA_CLK_ENABLE();
 243:Core/Src/stm32f4xx_hal_msp.c ****     /**USART2 GPIO Configuration
 244:Core/Src/stm32f4xx_hal_msp.c ****     PA2     ------> USART2_TX
 245:Core/Src/stm32f4xx_hal_msp.c ****     PA3     ------> USART2_RX
 246:Core/Src/stm32f4xx_hal_msp.c ****     */
 247:Core/Src/stm32f4xx_hal_msp.c ****     GPIO_InitStruct.Pin = USART_TX_Pin|USART_RX_Pin;
 248:Core/Src/stm32f4xx_hal_msp.c ****     GPIO_InitStruct.Mode = GPIO_MODE_AF_PP;
 249:Core/Src/stm32f4xx_hal_msp.c ****     GPIO_InitStruct.Pull = GPIO_NOPULL;
 250:Core/Src/stm32f4xx_hal_msp.c ****     GPIO_InitStruct.Speed = GPIO_SPEED_FREQ_VERY_HIGH;
 251:Core/Src/stm32f4xx_hal_msp.c ****     GPIO_InitStruct.Alternate = GPIO_AF7_USART2;
 252:Core/Src/stm32f4xx_hal_msp.c ****     HAL_GPIO_Init(GPIOA, &GPIO_InitStruct);
 253:Core/Src/stm32f4xx_hal_msp.c **** 
 254:Core/Src/stm32f4xx_hal_msp.c ****   /* USER CODE BEGIN USART2_MspInit 1 */
 255:Core/Src/stm32f4xx_hal_msp.c **** 
 256:Core/Src/stm32f4xx_hal_msp.c ****   /* USER CODE END USART2_MspInit 1 */
 257:Core/Src/stm32f4xx_hal_msp.c **** 
 258:Core/Src/stm32f4xx_hal_msp.c ****   }
 259:Core/Src/stm32f4xx_hal_msp.c **** 
 260:Core/Src/stm32f4xx_hal_msp.c **** }
 518              		.loc 1 260 1 view .LVU120
 519 0018 09B0     		add	sp, sp, #36
 520              	.LCFI15:
 521              		.cfi_remember_state
 522              		.cfi_def_cfa_offset 4
 523              		@ sp needed
 524 001a 5DF804FB 		ldr	pc, [sp], #4
 525              	.LVL25:
 526              	.L32:
 527              	.LCFI16:
 528              		.cfi_restore_state
 240:Core/Src/stm32f4xx_hal_msp.c **** 
 529              		.loc 1 240 5 is_stmt 1 view .LVU121
 530              	.LBB9:
 240:Core/Src/stm32f4xx_hal_msp.c **** 
 531              		.loc 1 240 5 view .LVU122
 532 001e 0021     		movs	r1, #0
 533 0020 0191     		str	r1, [sp, #4]
 240:Core/Src/stm32f4xx_hal_msp.c **** 
 534              		.loc 1 240 5 view .LVU123
 535 0022 03F5FA33 		add	r3, r3, #128000
 536 0026 1A6C     		ldr	r2, [r3, #64]
 537 0028 42F40032 		orr	r2, r2, #131072
ARM GAS  C:\Users\tugru\AppData\Local\Temp\ccfrz6hu.s 			page 16


 538 002c 1A64     		str	r2, [r3, #64]
 240:Core/Src/stm32f4xx_hal_msp.c **** 
 539              		.loc 1 240 5 view .LVU124
 540 002e 1A6C     		ldr	r2, [r3, #64]
 541 0030 02F40032 		and	r2, r2, #131072
 542 0034 0192     		str	r2, [sp, #4]
 240:Core/Src/stm32f4xx_hal_msp.c **** 
 543              		.loc 1 240 5 view .LVU125
 544 0036 019A     		ldr	r2, [sp, #4]
 545              	.LBE9:
 240:Core/Src/stm32f4xx_hal_msp.c **** 
 546              		.loc 1 240 5 view .LVU126
 242:Core/Src/stm32f4xx_hal_msp.c ****     /**USART2 GPIO Configuration
 547              		.loc 1 242 5 view .LVU127
 548              	.LBB10:
 242:Core/Src/stm32f4xx_hal_msp.c ****     /**USART2 GPIO Configuration
 549              		.loc 1 242 5 view .LVU128
 550 0038 0291     		str	r1, [sp, #8]
 242:Core/Src/stm32f4xx_hal_msp.c ****     /**USART2 GPIO Configuration
 551              		.loc 1 242 5 view .LVU129
 552 003a 1A6B     		ldr	r2, [r3, #48]
 553 003c 42F00102 		orr	r2, r2, #1
 554 0040 1A63     		str	r2, [r3, #48]
 242:Core/Src/stm32f4xx_hal_msp.c ****     /**USART2 GPIO Configuration
 555              		.loc 1 242 5 view .LVU130
 556 0042 1B6B     		ldr	r3, [r3, #48]
 557 0044 03F00103 		and	r3, r3, #1
 558 0048 0293     		str	r3, [sp, #8]
 242:Core/Src/stm32f4xx_hal_msp.c ****     /**USART2 GPIO Configuration
 559              		.loc 1 242 5 view .LVU131
 560 004a 029B     		ldr	r3, [sp, #8]
 561              	.LBE10:
 242:Core/Src/stm32f4xx_hal_msp.c ****     /**USART2 GPIO Configuration
 562              		.loc 1 242 5 view .LVU132
 247:Core/Src/stm32f4xx_hal_msp.c ****     GPIO_InitStruct.Mode = GPIO_MODE_AF_PP;
 563              		.loc 1 247 5 view .LVU133
 247:Core/Src/stm32f4xx_hal_msp.c ****     GPIO_InitStruct.Mode = GPIO_MODE_AF_PP;
 564              		.loc 1 247 25 is_stmt 0 view .LVU134
 565 004c 0C23     		movs	r3, #12
 566 004e 0393     		str	r3, [sp, #12]
 248:Core/Src/stm32f4xx_hal_msp.c ****     GPIO_InitStruct.Pull = GPIO_NOPULL;
 567              		.loc 1 248 5 is_stmt 1 view .LVU135
 248:Core/Src/stm32f4xx_hal_msp.c ****     GPIO_InitStruct.Pull = GPIO_NOPULL;
 568              		.loc 1 248 26 is_stmt 0 view .LVU136
 569 0050 0223     		movs	r3, #2
 570 0052 0493     		str	r3, [sp, #16]
 249:Core/Src/stm32f4xx_hal_msp.c ****     GPIO_InitStruct.Speed = GPIO_SPEED_FREQ_VERY_HIGH;
 571              		.loc 1 249 5 is_stmt 1 view .LVU137
 250:Core/Src/stm32f4xx_hal_msp.c ****     GPIO_InitStruct.Alternate = GPIO_AF7_USART2;
 572              		.loc 1 250 5 view .LVU138
 250:Core/Src/stm32f4xx_hal_msp.c ****     GPIO_InitStruct.Alternate = GPIO_AF7_USART2;
 573              		.loc 1 250 27 is_stmt 0 view .LVU139
 574 0054 0323     		movs	r3, #3
 575 0056 0693     		str	r3, [sp, #24]
 251:Core/Src/stm32f4xx_hal_msp.c ****     HAL_GPIO_Init(GPIOA, &GPIO_InitStruct);
 576              		.loc 1 251 5 is_stmt 1 view .LVU140
 251:Core/Src/stm32f4xx_hal_msp.c ****     HAL_GPIO_Init(GPIOA, &GPIO_InitStruct);
ARM GAS  C:\Users\tugru\AppData\Local\Temp\ccfrz6hu.s 			page 17


 577              		.loc 1 251 31 is_stmt 0 view .LVU141
 578 0058 0723     		movs	r3, #7
 579 005a 0793     		str	r3, [sp, #28]
 252:Core/Src/stm32f4xx_hal_msp.c **** 
 580              		.loc 1 252 5 is_stmt 1 view .LVU142
 581 005c 03A9     		add	r1, sp, #12
 582 005e 0348     		ldr	r0, .L33+4
 583              	.LVL26:
 252:Core/Src/stm32f4xx_hal_msp.c **** 
 584              		.loc 1 252 5 is_stmt 0 view .LVU143
 585 0060 FFF7FEFF 		bl	HAL_GPIO_Init
 586              	.LVL27:
 587              		.loc 1 260 1 view .LVU144
 588 0064 D8E7     		b	.L29
 589              	.L34:
 590 0066 00BF     		.align	2
 591              	.L33:
 592 0068 00440040 		.word	1073759232
 593 006c 00000240 		.word	1073872896
 594              		.cfi_endproc
 595              	.LFE225:
 597              		.section	.text.HAL_UART_MspDeInit,"ax",%progbits
 598              		.align	1
 599              		.global	HAL_UART_MspDeInit
 600              		.syntax unified
 601              		.thumb
 602              		.thumb_func
 604              	HAL_UART_MspDeInit:
 605              	.LVL28:
 606              	.LFB226:
 261:Core/Src/stm32f4xx_hal_msp.c **** 
 262:Core/Src/stm32f4xx_hal_msp.c **** /**
 263:Core/Src/stm32f4xx_hal_msp.c **** * @brief UART MSP De-Initialization
 264:Core/Src/stm32f4xx_hal_msp.c **** * This function freeze the hardware resources used in this example
 265:Core/Src/stm32f4xx_hal_msp.c **** * @param huart: UART handle pointer
 266:Core/Src/stm32f4xx_hal_msp.c **** * @retval None
 267:Core/Src/stm32f4xx_hal_msp.c **** */
 268:Core/Src/stm32f4xx_hal_msp.c **** void HAL_UART_MspDeInit(UART_HandleTypeDef* huart)
 269:Core/Src/stm32f4xx_hal_msp.c **** {
 607              		.loc 1 269 1 is_stmt 1 view -0
 608              		.cfi_startproc
 609              		@ args = 0, pretend = 0, frame = 0
 610              		@ frame_needed = 0, uses_anonymous_args = 0
 611              		.loc 1 269 1 is_stmt 0 view .LVU146
 612 0000 08B5     		push	{r3, lr}
 613              	.LCFI17:
 614              		.cfi_def_cfa_offset 8
 615              		.cfi_offset 3, -8
 616              		.cfi_offset 14, -4
 270:Core/Src/stm32f4xx_hal_msp.c ****   if(huart->Instance==USART2)
 617              		.loc 1 270 3 is_stmt 1 view .LVU147
 618              		.loc 1 270 11 is_stmt 0 view .LVU148
 619 0002 0268     		ldr	r2, [r0]
 620              		.loc 1 270 5 view .LVU149
 621 0004 064B     		ldr	r3, .L39
 622 0006 9A42     		cmp	r2, r3
 623 0008 00D0     		beq	.L38
ARM GAS  C:\Users\tugru\AppData\Local\Temp\ccfrz6hu.s 			page 18


 624              	.LVL29:
 625              	.L35:
 271:Core/Src/stm32f4xx_hal_msp.c ****   {
 272:Core/Src/stm32f4xx_hal_msp.c ****   /* USER CODE BEGIN USART2_MspDeInit 0 */
 273:Core/Src/stm32f4xx_hal_msp.c **** 
 274:Core/Src/stm32f4xx_hal_msp.c ****   /* USER CODE END USART2_MspDeInit 0 */
 275:Core/Src/stm32f4xx_hal_msp.c ****     /* Peripheral clock disable */
 276:Core/Src/stm32f4xx_hal_msp.c ****     __HAL_RCC_USART2_CLK_DISABLE();
 277:Core/Src/stm32f4xx_hal_msp.c **** 
 278:Core/Src/stm32f4xx_hal_msp.c ****     /**USART2 GPIO Configuration
 279:Core/Src/stm32f4xx_hal_msp.c ****     PA2     ------> USART2_TX
 280:Core/Src/stm32f4xx_hal_msp.c ****     PA3     ------> USART2_RX
 281:Core/Src/stm32f4xx_hal_msp.c ****     */
 282:Core/Src/stm32f4xx_hal_msp.c ****     HAL_GPIO_DeInit(GPIOA, USART_TX_Pin|USART_RX_Pin);
 283:Core/Src/stm32f4xx_hal_msp.c **** 
 284:Core/Src/stm32f4xx_hal_msp.c ****   /* USER CODE BEGIN USART2_MspDeInit 1 */
 285:Core/Src/stm32f4xx_hal_msp.c **** 
 286:Core/Src/stm32f4xx_hal_msp.c ****   /* USER CODE END USART2_MspDeInit 1 */
 287:Core/Src/stm32f4xx_hal_msp.c ****   }
 288:Core/Src/stm32f4xx_hal_msp.c **** 
 289:Core/Src/stm32f4xx_hal_msp.c **** }
 626              		.loc 1 289 1 view .LVU150
 627 000a 08BD     		pop	{r3, pc}
 628              	.LVL30:
 629              	.L38:
 276:Core/Src/stm32f4xx_hal_msp.c **** 
 630              		.loc 1 276 5 is_stmt 1 view .LVU151
 631 000c 054A     		ldr	r2, .L39+4
 632 000e 136C     		ldr	r3, [r2, #64]
 633 0010 23F40033 		bic	r3, r3, #131072
 634 0014 1364     		str	r3, [r2, #64]
 282:Core/Src/stm32f4xx_hal_msp.c **** 
 635              		.loc 1 282 5 view .LVU152
 636 0016 0C21     		movs	r1, #12
 637 0018 0348     		ldr	r0, .L39+8
 638              	.LVL31:
 282:Core/Src/stm32f4xx_hal_msp.c **** 
 639              		.loc 1 282 5 is_stmt 0 view .LVU153
 640 001a FFF7FEFF 		bl	HAL_GPIO_DeInit
 641              	.LVL32:
 642              		.loc 1 289 1 view .LVU154
 643 001e F4E7     		b	.L35
 644              	.L40:
 645              		.align	2
 646              	.L39:
 647 0020 00440040 		.word	1073759232
 648 0024 00380240 		.word	1073887232
 649 0028 00000240 		.word	1073872896
 650              		.cfi_endproc
 651              	.LFE226:
 653              		.text
 654              	.Letext0:
 655              		.file 2 "c:\\dev\\tools\\gcc-arm-none-eabi-10.3-2021.10\\arm-none-eabi\\include\\machine\\_default
 656              		.file 3 "c:\\dev\\tools\\gcc-arm-none-eabi-10.3-2021.10\\arm-none-eabi\\include\\sys\\_stdint.h"
 657              		.file 4 "Drivers/CMSIS/Device/ST/STM32F4xx/Include/stm32f411xe.h"
 658              		.file 5 "Drivers/CMSIS/Device/ST/STM32F4xx/Include/stm32f4xx.h"
 659              		.file 6 "Drivers/STM32F4xx_HAL_Driver/Inc/stm32f4xx_hal_def.h"
ARM GAS  C:\Users\tugru\AppData\Local\Temp\ccfrz6hu.s 			page 19


 660              		.file 7 "Drivers/STM32F4xx_HAL_Driver/Inc/stm32f4xx_hal_gpio.h"
 661              		.file 8 "Drivers/STM32F4xx_HAL_Driver/Inc/stm32f4xx_hal_dma.h"
 662              		.file 9 "Drivers/STM32F4xx_HAL_Driver/Inc/stm32f4xx_hal_adc.h"
 663              		.file 10 "Drivers/STM32F4xx_HAL_Driver/Inc/stm32f4xx_hal_spi.h"
 664              		.file 11 "Drivers/STM32F4xx_HAL_Driver/Inc/stm32f4xx_hal_uart.h"
 665              		.file 12 "Drivers/STM32F4xx_HAL_Driver/Inc/stm32f4xx_hal_cortex.h"
ARM GAS  C:\Users\tugru\AppData\Local\Temp\ccfrz6hu.s 			page 20

